target datalayout = "e-m:e-p270:32:32-p271:32:32-p272:64:64-i64:64-i128:128-f80:128-n8:16:32:64-S128"
target triple = "x86_64-pc-linux-gnu"

%struct.regex_matcher = type { %struct.cli_hashtable, i64, ptr, i64, i64, ptr, %struct.cli_matcher, %struct.cli_matcher, %struct.cli_hashset, %struct.cli_matcher, %struct.filter, ptr, i8 }
%struct.cli_hashtable = type { ptr, i64, i64, i64 }
%struct.cli_hashset = type { ptr, ptr, ptr, i32, i32, i32, i32 }
%struct.cli_matcher = type { i32, ptr, ptr, ptr, ptr, i32, i32, i32, i32, i32, %struct.cli_hash_patt, %struct.cli_hash_wild, i32, i32, i32, i32, i32, ptr, ptr, ptr, ptr, ptr, ptr, i32, i32, i8, i8, ptr, i16, i8, i32, ptr, i32, i32, i32, ptr, ptr, i32, ptr, i64, i64, ptr }
%struct.cli_hash_patt = type { [3 x %struct.cli_htu32] }
%struct.cli_htu32 = type { ptr, i64, i64, i64 }
%struct.cli_hash_wild = type { [3 x %struct.cli_sz_hash] }
%struct.cli_sz_hash = type { ptr, ptr, i32 }
%struct.filter = type { [65536 x i8], [65536 x i8], i64 }
%struct.cli_bm_patt = type { ptr, ptr, ptr, [4 x i32], i32, i32, ptr, i16, i16, i16, i8, i32, i32 }

@.str.32 = private unnamed_addr constant [44 x i8] c"add_hash: Invalid pattern '%s' in database\0A\00", align 1
@.str.33 = private unnamed_addr constant [18 x i8] c"Skipping hash %s\0A\00", align 1
@.str.34 = private unnamed_addr constant [55 x i8] c"add_hash: Unable to allocate memory for path->virname\0A\00", align 1
@.str.35 = private unnamed_addr constant [2 x i8] c"*\00", align 1
@.str.36 = private unnamed_addr constant [36 x i8] c"add_hash: failed to add BM pattern\0A\00", align 1

; Function Attrs: nounwind uwtable
define internal i32 @add_hash(ptr noundef %0, ptr noundef %1, i8 noundef signext %2, i32 noundef %3) #0 {
  %5 = alloca ptr, align 8
  %6 = alloca ptr, align 8
  %7 = alloca i8, align 1
  %8 = alloca i32, align 4
  %9 = alloca i32, align 4
  %10 = alloca ptr, align 8
  %11 = alloca ptr, align 8
  %12 = alloca ptr, align 8
  store ptr %0, ptr %5, align 8, !tbaa !3
  store ptr %1, ptr %6, align 8, !tbaa !8
  store i8 %2, ptr %7, align 1, !tbaa !18
  store i32 %3, ptr %8, align 4, !tbaa !12
  call void @llvm.lifetime.start.p0(i64 4, ptr %9) #11
  store i32 0, ptr %9, align 4, !tbaa !12
  call void @llvm.lifetime.start.p0(i64 8, ptr %10) #11
  store ptr null, ptr %10, align 8, !tbaa !92
  call void @llvm.lifetime.start.p0(i64 8, ptr %11) #11
  store ptr null, ptr %11, align 8, !tbaa !94
  call void @llvm.lifetime.start.p0(i64 8, ptr %12) #11
  store ptr null, ptr %12, align 8, !tbaa !8
  %13 = load ptr, ptr %6, align 8, !tbaa !8
  %14 = call i64 @strlen(ptr noundef %13) #12
  %15 = icmp eq i64 0, %14
  br i1 %15, label %16, label %18

16:                                               ; preds = %4
  %17 = load ptr, ptr %6, align 8, !tbaa !8
  call void (ptr, ...) @cli_errmsg(ptr noundef @.str.32, ptr noundef %17)
  store i32 4, ptr %9, align 4, !tbaa !12
  br label %129

18:                                               ; preds = %4
  %19 = load ptr, ptr %5, align 8, !tbaa !3
  %20 = getelementptr inbounds nuw %struct.regex_matcher, ptr %19, i32 0, i32 11
  %21 = load ptr, ptr %20, align 8, !tbaa !57
  %22 = call ptr @mpool_calloc(ptr noundef %21, i64 noundef 1, i64 noundef 72)
  store ptr %22, ptr %10, align 8, !tbaa !92
  %23 = load ptr, ptr %10, align 8, !tbaa !92
  %24 = icmp ne ptr %23, null
  br i1 %24, label %26, label %25

25:                                               ; preds = %18
  store i32 20, ptr %9, align 4, !tbaa !12
  br label %129

26:                                               ; preds = %18
  %27 = load ptr, ptr %5, align 8, !tbaa !3
  %28 = getelementptr inbounds nuw %struct.regex_matcher, ptr %27, i32 0, i32 11
  %29 = load ptr, ptr %28, align 8, !tbaa !57
  %30 = load ptr, ptr %6, align 8, !tbaa !8
  %31 = call ptr @cli_mpool_hex2str(ptr noundef %29, ptr noundef %30)
  %32 = load ptr, ptr %10, align 8, !tbaa !92
  %33 = getelementptr inbounds nuw %struct.cli_bm_patt, ptr %32, i32 0, i32 0
  store ptr %31, ptr %33, align 8, !tbaa !95
  %34 = load ptr, ptr %10, align 8, !tbaa !92
  %35 = getelementptr inbounds nuw %struct.cli_bm_patt, ptr %34, i32 0, i32 0
  %36 = load ptr, ptr %35, align 8, !tbaa !95
  %37 = icmp ne ptr %36, null
  br i1 %37, label %39, label %38

38:                                               ; preds = %26
  store i32 4, ptr %9, align 4, !tbaa !12
  br label %129

39:                                               ; preds = %26
  %40 = load ptr, ptr %10, align 8, !tbaa !92
  %41 = getelementptr inbounds nuw %struct.cli_bm_patt, ptr %40, i32 0, i32 7
  store i16 32, ptr %41, align 8, !tbaa !97
  %42 = load i32, ptr %8, align 4, !tbaa !12
  %43 = icmp ne i32 %42, 0
  br i1 %43, label %44, label %49

44:                                               ; preds = %39
  %45 = load ptr, ptr %10, align 8, !tbaa !92
  %46 = getelementptr inbounds nuw %struct.cli_bm_patt, ptr %45, i32 0, i32 7
  store i16 4, ptr %46, align 8, !tbaa !97
  %47 = load ptr, ptr %5, align 8, !tbaa !3
  %48 = getelementptr inbounds nuw %struct.regex_matcher, ptr %47, i32 0, i32 9
  store ptr %48, ptr %11, align 8, !tbaa !94
  br label %52

49:                                               ; preds = %39
  %50 = load ptr, ptr %5, align 8, !tbaa !3
  %51 = getelementptr inbounds nuw %struct.regex_matcher, ptr %50, i32 0, i32 7
  store ptr %51, ptr %11, align 8, !tbaa !94
  br label %52

52:                                               ; preds = %49, %44
  %53 = load ptr, ptr %5, align 8, !tbaa !3
  %54 = getelementptr inbounds nuw %struct.regex_matcher, ptr %53, i32 0, i32 8
  %55 = getelementptr inbounds nuw %struct.cli_hashset, ptr %54, i32 0, i32 0
  %56 = load ptr, ptr %55, align 8, !tbaa !98
  %57 = icmp ne ptr %56, null
  br i1 %57, label %65, label %58

58:                                               ; preds = %52
  %59 = load ptr, ptr %5, align 8, !tbaa !3
  %60 = getelementptr inbounds nuw %struct.regex_matcher, ptr %59, i32 0, i32 8
  %61 = call i32 @cli_hashset_init(ptr noundef %60, i64 noundef 1048576, i8 noundef zeroext 90)
  store i32 %61, ptr %9, align 4, !tbaa !12
  %62 = icmp ne i32 %61, 0
  br i1 %62, label %63, label %64

63:                                               ; preds = %58
  br label %129

64:                                               ; preds = %58
  br label %65

65:                                               ; preds = %64, %52
  %66 = load i8, ptr %7, align 1, !tbaa !18
  %67 = sext i8 %66 to i32
  %68 = icmp ne i32 %67, 87
  br i1 %68, label %69, label %99

69:                                               ; preds = %65
  %70 = load ptr, ptr %10, align 8, !tbaa !92
  %71 = getelementptr inbounds nuw %struct.cli_bm_patt, ptr %70, i32 0, i32 7
  %72 = load i16, ptr %71, align 8, !tbaa !97
  %73 = zext i16 %72 to i32
  %74 = icmp eq i32 %73, 32
  br i1 %74, label %75, label %99

75:                                               ; preds = %69
  %76 = load ptr, ptr %5, align 8, !tbaa !3
  %77 = getelementptr inbounds nuw %struct.regex_matcher, ptr %76, i32 0, i32 8
  %78 = load ptr, ptr %10, align 8, !tbaa !92
  %79 = getelementptr inbounds nuw %struct.cli_bm_patt, ptr %78, i32 0, i32 0
  %80 = load ptr, ptr %79, align 8, !tbaa !95
  %81 = load i32, ptr %80, align 1, !tbaa !18
  %82 = call zeroext i1 @cli_hashset_contains(ptr noundef %77, i32 noundef %81)
  br i1 %82, label %83, label %99

83:                                               ; preds = %75
  %84 = load ptr, ptr %10, align 8, !tbaa !92
  %85 = getelementptr inbounds nuw %struct.cli_bm_patt, ptr %84, i32 0, i32 0
  %86 = load ptr, ptr %85, align 8, !tbaa !95
  %87 = load ptr, ptr %5, align 8, !tbaa !3
  %88 = getelementptr inbounds nuw %struct.regex_matcher, ptr %87, i32 0, i32 7
  %89 = call i32 @cli_bm_scanbuff(ptr noundef %86, i32 noundef 32, ptr noundef %12, ptr noundef null, ptr noundef %88, i32 noundef 0, ptr noundef null, ptr noundef null, ptr noundef null)
  %90 = icmp eq i32 %89, 1
  br i1 %90, label %91, label %99

91:                                               ; preds = %83
  %92 = load ptr, ptr %12, align 8, !tbaa !8
  %93 = load i8, ptr %92, align 1, !tbaa !18
  %94 = sext i8 %93 to i32
  %95 = icmp eq i32 %94, 87
  br i1 %95, label %96, label %98

96:                                               ; preds = %91
  %97 = load ptr, ptr %6, align 8, !tbaa !8
  call void (ptr, ...) @cli_dbgmsg(ptr noundef @.str.33, ptr noundef %97)
  store i32 0, ptr %9, align 4, !tbaa !12
  br label %129

98:                                               ; preds = %91
  br label %99

99:                                               ; preds = %98, %83, %75, %69, %65
  %100 = load ptr, ptr %5, align 8, !tbaa !3
  %101 = getelementptr inbounds nuw %struct.regex_matcher, ptr %100, i32 0, i32 11
  %102 = load ptr, ptr %101, align 8, !tbaa !57
  %103 = call ptr @mpool_malloc(ptr noundef %102, i64 noundef 1)
  %104 = load ptr, ptr %10, align 8, !tbaa !92
  %105 = getelementptr inbounds nuw %struct.cli_bm_patt, ptr %104, i32 0, i32 2
  store ptr %103, ptr %105, align 8, !tbaa !99
  %106 = load ptr, ptr %10, align 8, !tbaa !92
  %107 = getelementptr inbounds nuw %struct.cli_bm_patt, ptr %106, i32 0, i32 2
  %108 = load ptr, ptr %107, align 8, !tbaa !99
  %109 = icmp ne ptr %108, null
  br i1 %109, label %111, label %110

110:                                              ; preds = %99
  call void (ptr, ...) @cli_errmsg(ptr noundef @.str.34)
  store i32 20, ptr %9, align 4, !tbaa !12
  br label %129

111:                                              ; preds = %99
  %112 = load i8, ptr %7, align 1, !tbaa !18
  %113 = load ptr, ptr %10, align 8, !tbaa !92
  %114 = getelementptr inbounds nuw %struct.cli_bm_patt, ptr %113, i32 0, i32 2
  %115 = load ptr, ptr %114, align 8, !tbaa !99
  store i8 %112, ptr %115, align 1, !tbaa !18
  %116 = load ptr, ptr %5, align 8, !tbaa !3
  %117 = getelementptr inbounds nuw %struct.regex_matcher, ptr %116, i32 0, i32 8
  %118 = load ptr, ptr %10, align 8, !tbaa !92
  %119 = getelementptr inbounds nuw %struct.cli_bm_patt, ptr %118, i32 0, i32 0
  %120 = load ptr, ptr %119, align 8, !tbaa !95
  %121 = load i32, ptr %120, align 1, !tbaa !18
  %122 = call i32 @cli_hashset_addkey(ptr noundef %117, i32 noundef %121)
  %123 = load ptr, ptr %11, align 8, !tbaa !94
  %124 = load ptr, ptr %10, align 8, !tbaa !92
  %125 = call i32 @cli_bm_addpatt(ptr noundef %123, ptr noundef %124, ptr noundef @.str.35)
  store i32 %125, ptr %9, align 4, !tbaa !12
  %126 = icmp ne i32 %125, 0
  br i1 %126, label %127, label %128

127:                                              ; preds = %111
  call void (ptr, ...) @cli_errmsg(ptr noundef @.str.36)
  store i32 4, ptr %9, align 4, !tbaa !12
  br label %129

128:                                              ; preds = %111
  store ptr null, ptr %10, align 8, !tbaa !92
  br label %129

129:                                              ; preds = %128, %127, %110, %96, %63, %38, %25, %16
  %130 = load ptr, ptr %10, align 8, !tbaa !92
  %131 = icmp ne ptr %130, null
  br i1 %131, label %132, label %161

132:                                              ; preds = %129
  %133 = load ptr, ptr %10, align 8, !tbaa !92
  %134 = getelementptr inbounds nuw %struct.cli_bm_patt, ptr %133, i32 0, i32 0
  %135 = load ptr, ptr %134, align 8, !tbaa !95
  %136 = icmp ne ptr %135, null
  br i1 %136, label %137, label %144

137:                                              ; preds = %132
  %138 = load ptr, ptr %5, align 8, !tbaa !3
  %139 = getelementptr inbounds nuw %struct.regex_matcher, ptr %138, i32 0, i32 11
  %140 = load ptr, ptr %139, align 8, !tbaa !57
  %141 = load ptr, ptr %10, align 8, !tbaa !92
  %142 = getelementptr inbounds nuw %struct.cli_bm_patt, ptr %141, i32 0, i32 0
  %143 = load ptr, ptr %142, align 8, !tbaa !95
  call void @mpool_free(ptr noundef %140, ptr noundef %143)
  br label %144

144:                                              ; preds = %137, %132
  %145 = load ptr, ptr %10, align 8, !tbaa !92
  %146 = getelementptr inbounds nuw %struct.cli_bm_patt, ptr %145, i32 0, i32 2
  %147 = load ptr, ptr %146, align 8, !tbaa !99
  %148 = icmp ne ptr %147, null
  br i1 %148, label %149, label %156

149:                                              ; preds = %144
  %150 = load ptr, ptr %5, align 8, !tbaa !3
  %151 = getelementptr inbounds nuw %struct.regex_matcher, ptr %150, i32 0, i32 11
  %152 = load ptr, ptr %151, align 8, !tbaa !57
  %153 = load ptr, ptr %10, align 8, !tbaa !92
  %154 = getelementptr inbounds nuw %struct.cli_bm_patt, ptr %153, i32 0, i32 2
  %155 = load ptr, ptr %154, align 8, !tbaa !99
  call void @mpool_free(ptr noundef %152, ptr noundef %155)
  br label %156

156:                                              ; preds = %149, %144
  %157 = load ptr, ptr %5, align 8, !tbaa !3
  %158 = getelementptr inbounds nuw %struct.regex_matcher, ptr %157, i32 0, i32 11
  %159 = load ptr, ptr %158, align 8, !tbaa !57
  %160 = load ptr, ptr %10, align 8, !tbaa !92
  call void @mpool_free(ptr noundef %159, ptr noundef %160)
  br label %161

161:                                              ; preds = %156, %129
  %162 = load i32, ptr %9, align 4, !tbaa !12
  call void @llvm.lifetime.end.p0(i64 8, ptr %12) #11
  call void @llvm.lifetime.end.p0(i64 8, ptr %11) #11
  call void @llvm.lifetime.end.p0(i64 8, ptr %10) #11
  call void @llvm.lifetime.end.p0(i64 4, ptr %9) #11
  ret i32 %162
}