; Function Attrs: nounwind uwtable
define internal fastcc i32 @add_hash(ptr noundef nonnull %0, ptr noundef nonnull %1, i8 noundef signext %2, i32 noundef range(i32 0, 2) %3) unnamed_addr #0 {
  %5 = alloca ptr, align 8
  call void @llvm.lifetime.start.p0(i64 8, ptr nonnull %5) #14
  store ptr null, ptr %5, align 8, !tbaa !8
  %char0 = load i8, ptr %1, align 1
  %6 = icmp eq i8 %char0, 0
  br i1 %6, label %7, label %8

7:                                                ; preds = %4
  tail call void (ptr, ...) @cli_errmsg(ptr noundef nonnull @.str.32, ptr noundef nonnull %1) #14
  br label %60

8:                                                ; preds = %4
  %9 = getelementptr inbounds nuw i8, ptr %0, i64 132440
  %10 = load ptr, ptr %9, align 8, !tbaa !45
  %11 = tail call ptr @mpool_calloc(ptr noundef %10, i64 noundef 1, i64 noundef 72) #14
  %.not = icmp eq ptr %11, null
  br i1 %.not, label %60, label %12

12:                                               ; preds = %8
  %13 = load ptr, ptr %9, align 8, !tbaa !45
  %14 = tail call ptr @cli_mpool_hex2str(ptr noundef %13, ptr noundef nonnull %1) #14
  store ptr %14, ptr %11, align 8, !tbaa !77
  %.not48 = icmp eq ptr %14, null
  br i1 %.not48, label %.thread64, label %15

15:                                               ; preds = %12
  %16 = getelementptr inbounds nuw i8, ptr %11, i64 56
  %.not49 = icmp eq i32 %3, 0
  %spec.store.select = select i1 %.not49, i16 32, i16 4
  store i16 %spec.store.select, ptr %16, align 8
  %spec.select = select i1 %.not49, i64 488, i64 944
  %17 = getelementptr inbounds nuw i8, ptr %0, i64 %spec.select
  %18 = getelementptr inbounds nuw i8, ptr %0, i64 904
  %19 = load ptr, ptr %18, align 8, !tbaa !80
  %.not50 = icmp eq ptr %19, null
  br i1 %.not50, label %20, label %22

20:                                               ; preds = %15
  %21 = tail call i32 @cli_hashset_init(ptr noundef nonnull %18, i64 noundef 1048576, i8 noundef zeroext 90) #14
  %.not51 = icmp eq i32 %21, 0
  br i1 %.not51, label %22, label %51

22:                                               ; preds = %20, %15
  %.not52 = icmp eq i8 %2, 87
  br i1 %.not52, label %40, label %23

23:                                               ; preds = %22
  %24 = load i16, ptr %16, align 8, !tbaa !81
  %25 = icmp eq i16 %24, 32
  br i1 %25, label %26, label %40

26:                                               ; preds = %23
  %27 = load ptr, ptr %11, align 8, !tbaa !77
  %28 = load i32, ptr %27, align 1, !tbaa !10
  %29 = tail call zeroext i1 @cli_hashset_contains(ptr noundef nonnull %18, i32 noundef %28) #14
  br i1 %29, label %30, label %40

30:                                               ; preds = %26
  %31 = load ptr, ptr %11, align 8, !tbaa !77
  %32 = getelementptr inbounds nuw i8, ptr %0, i64 488
  %33 = call i32 @cli_bm_scanbuff(ptr noundef %31, i32 noundef 32, ptr noundef nonnull %5, ptr noundef null, ptr noundef nonnull %32, i32 noundef 0, ptr noundef null, ptr noundef null, ptr noundef null) #14
  %34 = icmp eq i32 %33, 1
  br i1 %34, label %35, label %40

35:                                               ; preds = %30
  %36 = load ptr, ptr %5, align 8, !tbaa !8
  %37 = load i8, ptr %36, align 1, !tbaa !10
  %38 = icmp eq i8 %37, 87
  br i1 %38, label %39, label %40

39:                                               ; preds = %35
  call void (ptr, ...) @cli_dbgmsg(ptr noundef nonnull @.str.33, ptr noundef nonnull %1) #14
  br label %51

40:                                               ; preds = %35, %30, %26, %23, %22
  %41 = load ptr, ptr %9, align 8, !tbaa !45
  %42 = call ptr @mpool_malloc(ptr noundef %41, i64 noundef 1) #14
  %43 = getelementptr inbounds nuw i8, ptr %11, i64 16
  store ptr %42, ptr %43, align 8, !tbaa !82
  %.not53 = icmp eq ptr %42, null
  br i1 %.not53, label %44, label %45

44:                                               ; preds = %40
  call void (ptr, ...) @cli_errmsg(ptr noundef nonnull @.str.34) #14
  br label %51

45:                                               ; preds = %40
  store i8 %2, ptr %42, align 1, !tbaa !10
  %46 = load ptr, ptr %11, align 8, !tbaa !77
  %47 = load i32, ptr %46, align 1, !tbaa !10
  %48 = call i32 @cli_hashset_addkey(ptr noundef nonnull %18, i32 noundef %47) #14
  %49 = call i32 @cli_bm_addpatt(ptr noundef nonnull %17, ptr noundef nonnull %11, ptr noundef nonnull @.str.35) #14
  %.not54 = icmp eq i32 %49, 0
  br i1 %.not54, label %60, label %50

50:                                               ; preds = %45
  call void (ptr, ...) @cli_errmsg(ptr noundef nonnull @.str.36) #14
  br label %51

51:                                               ; preds = %39, %50, %44, %20
  %.041.ph.ph = phi i32 [ 0, %39 ], [ 4, %50 ], [ 20, %44 ], [ %21, %20 ]
  %.pr = load ptr, ptr %11, align 8, !tbaa !77
  %.not56 = icmp eq ptr %.pr, null
  br i1 %.not56, label %.thread64, label %52

52:                                               ; preds = %51
  %53 = load ptr, ptr %9, align 8, !tbaa !45
  call void @mpool_free(ptr noundef %53, ptr noundef nonnull %.pr) #14
  br label %.thread64

.thread64:                                        ; preds = %12, %52, %51
  %.041.ph67 = phi i32 [ %.041.ph.ph, %52 ], [ %.041.ph.ph, %51 ], [ 4, %12 ]
  %54 = getelementptr inbounds nuw i8, ptr %11, i64 16
  %55 = load ptr, ptr %54, align 8, !tbaa !82
  %.not57 = icmp eq ptr %55, null
  br i1 %.not57, label %58, label %56

56:                                               ; preds = %.thread64
  %57 = load ptr, ptr %9, align 8, !tbaa !45
  call void @mpool_free(ptr noundef %57, ptr noundef nonnull %55) #14
  br label %58

58:                                               ; preds = %56, %.thread64
  %59 = load ptr, ptr %9, align 8, !tbaa !45
  call void @mpool_free(ptr noundef %59, ptr noundef nonnull %11) #14
  br label %60

60:                                               ; preds = %7, %8, %45, %58
  %.04162 = phi i32 [ %.041.ph67, %58 ], [ 4, %7 ], [ 20, %8 ], [ 0, %45 ]
  call void @llvm.lifetime.end.p0(i64 8, ptr nonnull %5) #14
  ret i32 %.04162
}